; ModuleID = 'source-C-CXX/32/3143.c'
source_filename = "source-C-CXX/32/3143.c"
target datalayout = "e-m:e-p270:32:32-p271:32:32-p272:64:64-i64:64-f80:128-n8:16:32:64-S128"
target triple = "x86_64-pc-linux-gnu"

@.str = private unnamed_addr constant [3 x i8] c"%d\00", align 1
@.str.1 = private unnamed_addr constant [3 x i8] c"%s\00", align 1

; Function Attrs: nofree nounwind sspstrong uwtable
define dso_local i32 @main() local_unnamed_addr #0 {
  %1 = alloca [1000 x [256 x i8]], align 16
  %2 = alloca i32, align 4
  %3 = getelementptr inbounds [1000 x [256 x i8]], [1000 x [256 x i8]]* %1, i64 0, i64 0, i64 0
  call void @llvm.lifetime.start.p0i8(i64 256000, i8* nonnull %3) #5
  %4 = bitcast i32* %2 to i8*
  call void @llvm.lifetime.start.p0i8(i64 4, i8* nonnull %4) #5
  %5 = call i32 (i8*, ...) @__isoc99_scanf(i8* getelementptr inbounds ([3 x i8], [3 x i8]* @.str, i64 0, i64 0), i32* nonnull %2)
  %6 = load i32, i32* %2, align 4, !tbaa !5
  %7 = icmp sgt i32 %6, 0
  br i1 %7, label %12, label %52

8:                                                ; preds = %12
  %9 = icmp sgt i32 %17, 0
  br i1 %9, label %10, label %52

10:                                               ; preds = %8
  %11 = zext i32 %17 to i64
  br label %20

12:                                               ; preds = %0, %12
  %13 = phi i64 [ %16, %12 ], [ 0, %0 ]
  %14 = getelementptr inbounds [1000 x [256 x i8]], [1000 x [256 x i8]]* %1, i64 0, i64 %13, i64 0
  %15 = call i32 (i8*, ...) @__isoc99_scanf(i8* getelementptr inbounds ([3 x i8], [3 x i8]* @.str.1, i64 0, i64 0), i8* nonnull %14)
  %16 = add nuw nsw i64 %13, 1
  %17 = load i32, i32* %2, align 4, !tbaa !5
  %18 = sext i32 %17 to i64
  %19 = icmp slt i64 %16, %18
  br i1 %19, label %12, label %8, !llvm.loop !9

20:                                               ; preds = %10, %39
  %21 = phi i64 [ 0, %10 ], [ %42, %39 ]
  %22 = getelementptr inbounds [1000 x [256 x i8]], [1000 x [256 x i8]]* %1, i64 0, i64 %21, i64 0
  %23 = call i64 @strlen(i8* noundef nonnull %22) #6
  %24 = icmp eq i64 %23, 0
  br i1 %24, label %39, label %26

25:                                               ; preds = %39
  br i1 %9, label %44, label %52

26:                                               ; preds = %20, %35
  %27 = phi i64 [ %36, %35 ], [ 0, %20 ]
  %28 = getelementptr inbounds [1000 x [256 x i8]], [1000 x [256 x i8]]* %1, i64 0, i64 %21, i64 %27
  %29 = load i8, i8* %28, align 1, !tbaa !11
  switch i8 %29, label %35 [
    i8 65, label %33
    i8 84, label %30
    i8 67, label %31
    i8 71, label %32
  ]

30:                                               ; preds = %26
  br label %33

31:                                               ; preds = %26
  br label %33

32:                                               ; preds = %26
  br label %33

33:                                               ; preds = %26, %30, %32, %31
  %34 = phi i8 [ 71, %31 ], [ 67, %32 ], [ 65, %30 ], [ 84, %26 ]
  store i8 %34, i8* %28, align 1, !tbaa !11
  br label %35

35:                                               ; preds = %33, %26
  %36 = add nuw nsw i64 %27, 1
  %37 = call i64 @strlen(i8* noundef nonnull %22) #6
  %38 = icmp ugt i64 %37, %36
  br i1 %38, label %26, label %39, !llvm.loop !12

39:                                               ; preds = %35, %20
  %40 = phi i64 [ 0, %20 ], [ %37, %35 ]
  %41 = getelementptr inbounds [1000 x [256 x i8]], [1000 x [256 x i8]]* %1, i64 0, i64 %21, i64 %40
  store i8 0, i8* %41, align 1, !tbaa !11
  %42 = add nuw nsw i64 %21, 1
  %43 = icmp eq i64 %42, %11
  br i1 %43, label %25, label %20, !llvm.loop !13

44:                                               ; preds = %25, %44
  %45 = phi i64 [ %48, %44 ], [ 0, %25 ]
  %46 = getelementptr inbounds [1000 x [256 x i8]], [1000 x [256 x i8]]* %1, i64 0, i64 %45, i64 0
  %47 = call i32 @puts(i8* nonnull %46)
  %48 = add nuw nsw i64 %45, 1
  %49 = load i32, i32* %2, align 4, !tbaa !5
  %50 = sext i32 %49 to i64
  %51 = icmp slt i64 %48, %50
  br i1 %51, label %44, label %52, !llvm.loop !14

52:                                               ; preds = %44, %8, %0, %25
  call void @llvm.lifetime.end.p0i8(i64 4, i8* nonnull %4) #5
  call void @llvm.lifetime.end.p0i8(i64 256000, i8* nonnull %3) #5
  ret i32 0
}

; Function Attrs: argmemonly mustprogress nofree nosync nounwind willreturn
declare void @llvm.lifetime.start.p0i8(i64 immarg, i8* nocapture) #1

; Function Attrs: nofree nounwind
declare noundef i32 @__isoc99_scanf(i8* nocapture noundef readonly, ...) local_unnamed_addr #2

; Function Attrs: argmemonly mustprogress nofree nounwind readonly willreturn
declare i64 @strlen(i8* nocapture) local_unnamed_addr #3

; Function Attrs: argmemonly mustprogress nofree nosync nounwind willreturn
declare void @llvm.lifetime.end.p0i8(i64 immarg, i8* nocapture) #1

; Function Attrs: nofree nounwind
declare noundef i32 @puts(i8* nocapture noundef readonly) local_unnamed_addr #4


!llvm.module.flags = !{!0, !1, !2, !3}
!llvm.ident = !{!4}

!0 = !{i32 1, !"wchar_size", i32 4}
!1 = !{i32 7, !"PIC Level", i32 2}
!2 = !{i32 7, !"PIE Level", i32 2}
!3 = !{i32 7, !"uwtable", i32 1}
!4 = !{!"clang version 13.0.0"}
!5 = !{!6, !6, i64 0}
!6 = !{!"int", !7, i64 0}
!7 = !{!"omnipotent char", !8, i64 0}
!8 = !{!"Simple C/C++ TBAA"}
!9 = distinct !{!9, !10}
!10 = !{!"llvm.loop.mustprogress"}
!11 = !{!7, !7, i64 0}
!12 = distinct !{!12, !10}
!13 = distinct !{!13, !10}
!14 = distinct !{!14, !10}
